target datalayout = "e-m:e-p270:32:32-p271:32:32-p272:64:64-i64:64-i128:128-f80:128-n8:16:32:64-S128"
target triple = "x86_64-pc-linux-gnu"

%struct.Dar_Lib_t_ = type { ptr, i32, i32, [222 x i32], [222 x ptr], ptr, i32, ptr, [222 x ptr], ptr, [222 x ptr], ptr, [222 x ptr], [222 x i32], [222 x ptr], ptr, i32, i32, i32, [222 x i32], [222 x ptr], ptr, i32, [222 x i32], [222 x ptr], ptr, i32, ptr, i32, ptr, ptr, ptr, ptr, ptr }
%struct.Dar_LibObj_t_ = type { i64 }
%struct.Dar_LibDat_t_ = type { %union.anon, i32, i32, float, i8, [3 x i8] }
%union.anon = type { ptr }

@s_DarLib = internal global ptr null, align 8

; Function Attrs: nounwind uwtable
define internal ptr @Dar_LibObj(ptr noundef %0, i32 noundef %1) #0 {
  %3 = alloca ptr, align 8
  %4 = alloca i32, align 4
  store ptr %0, ptr %3, align 8
  store i32 %1, ptr %4, align 4
  %5 = load ptr, ptr %3, align 8
  %6 = getelementptr inbounds %struct.Dar_Lib_t_, ptr %5, i32 0, i32 0
  %7 = load ptr, ptr %6, align 8
  %8 = load i32, ptr %4, align 4
  %9 = sext i32 %8 to i64
  %10 = getelementptr inbounds %struct.Dar_LibObj_t_, ptr %7, i64 %9
  ret ptr %10
}

; Function Attrs: nounwind uwtable
define i32 @Dar2_LibEval_rec(ptr noundef %0, i32 noundef %1) #0 {
  %3 = alloca i32, align 4
  %4 = alloca ptr, align 8
  %5 = alloca i32, align 4
  %6 = alloca ptr, align 8
  %7 = alloca i32, align 4
  store ptr %0, ptr %4, align 8
  store i32 %1, ptr %5, align 4
  %8 = load ptr, ptr @s_DarLib, align 8
  %9 = getelementptr inbounds %struct.Dar_Lib_t_, ptr %8, i32 0, i32 27
  %10 = load ptr, ptr %9, align 8
  %11 = load ptr, ptr %4, align 8
  %12 = load i64, ptr %11, align 4
  %13 = lshr i64 %12, 36
  %14 = trunc i64 %13 to i32
  %15 = sext i32 %14 to i64
  %16 = getelementptr inbounds %struct.Dar_LibDat_t_, ptr %10, i64 %15
  store ptr %16, ptr %6, align 8
  %17 = load ptr, ptr %6, align 8
  %18 = getelementptr inbounds %struct.Dar_LibDat_t_, ptr %17, i32 0, i32 2
  %19 = load i32, ptr %18, align 4
  %20 = load i32, ptr %5, align 4
  %21 = icmp eq i32 %19, %20
  br i1 %21, label %22, label %23

22:                                               ; preds = %2
  store i32 0, ptr %3, align 4
  br label %62

23:                                               ; preds = %2
  %24 = load i32, ptr %5, align 4
  %25 = load ptr, ptr %6, align 8
  %26 = getelementptr inbounds %struct.Dar_LibDat_t_, ptr %25, i32 0, i32 2
  store i32 %24, ptr %26, align 4
  %27 = load ptr, ptr %4, align 8
  %28 = load i64, ptr %27, align 4
  %29 = lshr i64 %28, 35
  %30 = and i64 %29, 1
  %31 = trunc i64 %30 to i32
  %32 = icmp ne i32 %31, 0
  br i1 %32, label %33, label %34

33:                                               ; preds = %23
  store i32 0, ptr %3, align 4
  br label %62

34:                                               ; preds = %23
  %35 = load ptr, ptr %6, align 8
  %36 = getelementptr inbounds %struct.Dar_LibDat_t_, ptr %35, i32 0, i32 0
  %37 = load i32, ptr %36, align 8
  %38 = icmp sge i32 %37, 0
  br i1 %38, label %39, label %40

39:                                               ; preds = %34
  store i32 0, ptr %3, align 4
  br label %62

40:                                               ; preds = %34
  %41 = load ptr, ptr @s_DarLib, align 8
  %42 = load ptr, ptr %4, align 8
  %43 = load i64, ptr %42, align 4
  %44 = and i64 %43, 65535
  %45 = trunc i64 %44 to i32
  %46 = call ptr @Dar_LibObj(ptr noundef %41, i32 noundef %45)
  %47 = load i32, ptr %5, align 4
  %48 = call i32 @Dar2_LibEval_rec(ptr noundef %46, i32 noundef %47)
  store i32 %48, ptr %7, align 4
  %49 = load ptr, ptr @s_DarLib, align 8
  %50 = load ptr, ptr %4, align 8
  %51 = load i64, ptr %50, align 4
  %52 = lshr i64 %51, 16
  %53 = and i64 %52, 65535
  %54 = trunc i64 %53 to i32
  %55 = call ptr @Dar_LibObj(ptr noundef %49, i32 noundef %54)
  %56 = load i32, ptr %5, align 4
  %57 = call i32 @Dar2_LibEval_rec(ptr noundef %55, i32 noundef %56)
  %58 = load i32, ptr %7, align 4
  %59 = add nsw i32 %58, %57
  store i32 %59, ptr %7, align 4
  %60 = load i32, ptr %7, align 4
  %61 = add nsw i32 %60, 1
  store i32 %61, ptr %3, align 4
  br label %62

62:                                               ; preds = %40, %39, %33, %22
  %63 = load i32, ptr %3, align 4
  ret i32 %63
}