; Function Attrs: nofree nosync nounwind memory(readwrite, inaccessiblemem: none) uwtable
define range(i32 -2147483647, -2147483648) i32 @Dar2_LibEval_rec(ptr noundef readonly captures(none) %0, i32 noundef %1) local_unnamed_addr #9 {
  br label %tailrecurse

tailrecurse:                                      ; preds = %18, %2
  %accumulator.tr = phi i32 [ 0, %2 ], [ %27, %18 ]
  %.tr = phi ptr [ %0, %2 ], [ %25, %18 ]
  %3 = load ptr, ptr @s_DarLib, align 8
  %4 = getelementptr inbounds nuw i8, ptr %3, i64 16096
  %5 = load ptr, ptr %4, align 8
  %6 = load i64, ptr %.tr, align 4
  %7 = lshr i64 %6, 36
  %8 = getelementptr inbounds nuw %struct.Dar_LibDat_t_, ptr %5, i64 %7
  %9 = getelementptr inbounds nuw i8, ptr %8, i64 12
  %10 = load i32, ptr %9, align 4
  %11 = icmp eq i32 %10, %1
  br i1 %11, label %common.ret, label %12

12:                                               ; preds = %tailrecurse
  store i32 %1, ptr %9, align 4
  %13 = load i64, ptr %.tr, align 4
  %14 = and i64 %13, 34359738368
  %.not = icmp eq i64 %14, 0
  br i1 %.not, label %15, label %common.ret

15:                                               ; preds = %12
  %16 = load i32, ptr %8, align 8
  %17 = icmp sgt i32 %16, -1
  br i1 %17, label %common.ret, label %18

common.ret:                                       ; preds = %tailrecurse, %12, %15
  %accumulator.ret.tr = add i32 0, %accumulator.tr
  ret i32 %accumulator.ret.tr

18:                                               ; preds = %15
  %19 = and i64 %13, 65535
  %.val14 = load ptr, ptr %3, align 8
  %20 = getelementptr inbounds nuw %struct.Dar_LibObj_t_, ptr %.val14, i64 %19
  %21 = tail call i32 @Dar2_LibEval_rec(ptr noundef %20, i32 noundef %1)
  %22 = load i64, ptr %.tr, align 4
  %23 = lshr i64 %22, 16
  %.val = load ptr, ptr %3, align 8
  %24 = and i64 %23, 65535
  %25 = getelementptr inbounds nuw %struct.Dar_LibObj_t_, ptr %.val, i64 %24
  %26 = add i32 %21, 1
  %27 = add i32 %26, %accumulator.tr
  br label %tailrecurse
}